; Function Attrs: nounwind uwtable
define ptr @l_Array_foldlMUnsafe_fold___at_Lean_IR_ExplicitBoxing_addBoxedVersions___spec__1(ptr noundef %0, ptr noundef readonly captures(none) %1, i64 noundef %2, i64 noundef %3, ptr noundef %4) local_unnamed_addr #0 {
  %.not51 = icmp eq i64 %2, %3
  br i1 %.not51, label %.._crit_edge_crit_edge, label %.lr.ph

.._crit_edge_crit_edge:                           ; preds = %5
  %.pre = ptrtoint ptr %0 to i64
  %.pre54 = and i64 %.pre, 1
  br label %._crit_edge

.lr.ph:                                           ; preds = %5
  %6 = getelementptr inbounds nuw i8, ptr %1, i64 24
  %7 = ptrtoint ptr %0 to i64
  %8 = and i64 %7, 1
  %.not48 = icmp eq i64 %8, 0
  br label %9

9:                                                ; preds = %.lr.ph, %lean_dec.exit30
  %.02253 = phi i64 [ %2, %.lr.ph ], [ %27, %lean_dec.exit30 ]
  %.02652 = phi ptr [ %4, %.lr.ph ], [ %.228, %lean_dec.exit30 ]
  %10 = getelementptr inbounds nuw [0 x ptr], ptr %6, i64 0, i64 %.02253
  %11 = load ptr, ptr %10, align 8, !tbaa !4
  %12 = ptrtoint ptr %11 to i64
  %13 = and i64 %12, 1
  %.not.i35 = icmp eq i64 %13, 0
  br i1 %.not.i35, label %14, label %lean_array_uget.exit

14:                                               ; preds = %9
  %.val.i.i = load i32, ptr %11, align 4, !tbaa !10
  %15 = icmp sgt i32 %.val.i.i, 0
  br i1 %15, label %16, label %18, !prof !13

16:                                               ; preds = %14
  %17 = add nuw i32 %.val.i.i, 1
  store i32 %17, ptr %11, align 4, !tbaa !10
  br label %lean_array_uget.exit

18:                                               ; preds = %14
  %.not.i.i = icmp eq i32 %.val.i.i, 0
  br i1 %.not.i.i, label %lean_array_uget.exit, label %19

19:                                               ; preds = %18
  tail call void @lean_inc_ref_cold(ptr noundef nonnull %11) #6
  br label %lean_array_uget.exit

lean_array_uget.exit:                             ; preds = %9, %16, %18, %19
  br i1 %.not48, label %20, label %lean_inc.exit

20:                                               ; preds = %lean_array_uget.exit
  %.val.i = load i32, ptr %0, align 4, !tbaa !10
  %21 = icmp sgt i32 %.val.i, 0
  br i1 %21, label %22, label %24, !prof !13

22:                                               ; preds = %20
  %23 = add nuw i32 %.val.i, 1
  store i32 %23, ptr %0, align 4, !tbaa !10
  br label %lean_inc.exit

24:                                               ; preds = %20
  %.not.i36 = icmp eq i32 %.val.i, 0
  br i1 %.not.i36, label %lean_inc.exit, label %25

25:                                               ; preds = %24
  tail call void @lean_inc_ref_cold(ptr noundef nonnull %0) #6
  br label %lean_inc.exit

lean_inc.exit:                                    ; preds = %25, %24, %22, %lean_array_uget.exit
  %26 = tail call zeroext i8 @l_Lean_IR_ExplicitBoxing_requiresBoxedVersion(ptr noundef %0, ptr noundef %11)
  %27 = add i64 %.02253, 1
  %28 = icmp eq i8 %26, 0
  br i1 %28, label %29, label %37

29:                                               ; preds = %lean_inc.exit
  br i1 %.not.i35, label %30, label %lean_dec.exit30

30:                                               ; preds = %29
  %31 = load i32, ptr %11, align 4, !tbaa !10
  %32 = icmp sgt i32 %31, 1
  br i1 %32, label %33, label %35, !prof !13

33:                                               ; preds = %30
  %34 = add nsw i32 %31, -1
  store i32 %34, ptr %11, align 4, !tbaa !10
  br label %lean_dec.exit30

35:                                               ; preds = %30
  %.not.i = icmp eq i32 %31, 0
  br i1 %.not.i, label %lean_dec.exit30, label %36

36:                                               ; preds = %35
  tail call void @lean_dec_ref_cold(ptr noundef nonnull %11) #6
  br label %lean_dec.exit30

37:                                               ; preds = %lean_inc.exit
  %38 = tail call ptr @l_Lean_IR_ExplicitBoxing_mkBoxedVersionAux(ptr noundef %11, ptr noundef nonnull inttoptr (i64 3 to ptr))
  %39 = getelementptr inbounds nuw i8, ptr %38, i64 8
  %40 = load ptr, ptr %39, align 8, !tbaa !4
  %41 = ptrtoint ptr %40 to i64
  %42 = and i64 %41, 1
  %.not.i37 = icmp eq i64 %42, 0
  br i1 %.not.i37, label %43, label %lean_inc.exit.i

43:                                               ; preds = %37
  %.val.i.i39 = load i32, ptr %40, align 4, !tbaa !10
  %44 = icmp sgt i32 %.val.i.i39, 0
  br i1 %44, label %45, label %47, !prof !13

45:                                               ; preds = %43
  %46 = add nuw i32 %.val.i.i39, 1
  store i32 %46, ptr %40, align 4, !tbaa !10
  br label %lean_inc.exit.i

47:                                               ; preds = %43
  %.not.i6.i = icmp eq i32 %.val.i.i39, 0
  br i1 %.not.i6.i, label %lean_inc.exit.i, label %48

48:                                               ; preds = %47
  tail call void @lean_inc_ref_cold(ptr noundef nonnull %40) #6
  br label %lean_inc.exit.i

lean_inc.exit.i:                                  ; preds = %48, %47, %45, %37
  %49 = ptrtoint ptr %38 to i64
  %50 = and i64 %49, 1
  %.not7.i = icmp eq i64 %50, 0
  br i1 %.not7.i, label %51, label %l_Lean_IR_ExplicitBoxing_mkBoxedVersion.exit

51:                                               ; preds = %lean_inc.exit.i
  %52 = load i32, ptr %38, align 4, !tbaa !10
  %53 = icmp sgt i32 %52, 1
  br i1 %53, label %54, label %56, !prof !13

54:                                               ; preds = %51
  %55 = add nsw i32 %52, -1
  store i32 %55, ptr %38, align 4, !tbaa !10
  br label %l_Lean_IR_ExplicitBoxing_mkBoxedVersion.exit

56:                                               ; preds = %51
  %.not.i.i38 = icmp eq i32 %52, 0
  br i1 %.not.i.i38, label %l_Lean_IR_ExplicitBoxing_mkBoxedVersion.exit, label %57

57:                                               ; preds = %56
  tail call void @lean_dec_ref_cold(ptr noundef nonnull %38) #6
  br label %l_Lean_IR_ExplicitBoxing_mkBoxedVersion.exit

l_Lean_IR_ExplicitBoxing_mkBoxedVersion.exit:     ; preds = %lean_inc.exit.i, %54, %56, %57
  br i1 %.not.i35, label %58, label %lean_dec.exit29

58:                                               ; preds = %l_Lean_IR_ExplicitBoxing_mkBoxedVersion.exit
  %59 = load i32, ptr %11, align 4, !tbaa !10
  %60 = icmp sgt i32 %59, 1
  br i1 %60, label %61, label %63, !prof !13

61:                                               ; preds = %58
  %62 = add nsw i32 %59, -1
  store i32 %62, ptr %11, align 4, !tbaa !10
  br label %lean_dec.exit29

63:                                               ; preds = %58
  %.not.i31 = icmp eq i32 %59, 0
  br i1 %.not.i31, label %lean_dec.exit29, label %64

64:                                               ; preds = %63
  tail call void @lean_dec_ref_cold(ptr noundef nonnull %11) #6
  br label %lean_dec.exit29

lean_dec.exit29:                                  ; preds = %64, %63, %61, %l_Lean_IR_ExplicitBoxing_mkBoxedVersion.exit
  %65 = tail call ptr @lean_array_push(ptr noundef %.02652, ptr noundef %40) #6
  br label %lean_dec.exit30

._crit_edge:                                      ; preds = %lean_dec.exit30, %.._crit_edge_crit_edge
  %.pre-phi55 = phi i64 [ %.pre54, %.._crit_edge_crit_edge ], [ %8, %lean_dec.exit30 ]
  %.026.lcssa = phi ptr [ %4, %.._crit_edge_crit_edge ], [ %.228, %lean_dec.exit30 ]
  %.not47 = icmp eq i64 %.pre-phi55, 0
  br i1 %.not47, label %66, label %73

66:                                               ; preds = %._crit_edge
  %67 = load i32, ptr %0, align 4, !tbaa !10
  %68 = icmp sgt i32 %67, 1
  br i1 %68, label %69, label %71, !prof !13

69:                                               ; preds = %66
  %70 = add nsw i32 %67, -1
  store i32 %70, ptr %0, align 4, !tbaa !10
  br label %73

71:                                               ; preds = %66
  %.not.i33 = icmp eq i32 %67, 0
  br i1 %.not.i33, label %73, label %72

72:                                               ; preds = %71
  tail call void @lean_dec_ref_cold(ptr noundef nonnull %0) #6
  br label %73

lean_dec.exit30:                                  ; preds = %29, %33, %35, %36, %lean_dec.exit29
  %.228 = phi ptr [ %65, %lean_dec.exit29 ], [ %.02652, %36 ], [ %.02652, %35 ], [ %.02652, %33 ], [ %.02652, %29 ]
  %.not = icmp eq i64 %27, %3
  br i1 %.not, label %._crit_edge, label %9

73:                                               ; preds = %72, %71, %69, %._crit_edge
  ret ptr %.026.lcssa
}